; Function Attrs: mustprogress uwtable
define hidden void @_ZN2qe8pred_abs14set_expr_levelEP3appRKNS_9max_levelE(ptr noundef nonnull align 8 dereferenceable(216) %this, ptr noundef %v, ptr nocapture noundef nonnull readonly align 4 dereferenceable(8) %lvl) local_unnamed_addr #3 align 2 {
entry:
  %ref.tmp.i = alloca %"struct.obj_map<expr, qe::max_level>::key_data", align 8
  %m_elevel = getelementptr inbounds i8, ptr %this, i64 168
  call void @llvm.lifetime.start.p0(i64 16, ptr nonnull %ref.tmp.i)
  store ptr %v, ptr %ref.tmp.i, align 8
  %m_value.i.i = getelementptr inbounds i8, ptr %ref.tmp.i, i64 8
  %0 = load i64, ptr %lvl, align 4
  store i64 %0, ptr %m_value.i.i, align 8
  call void @_ZN14core_hashtableIN7obj_mapI4exprN2qe9max_levelEE13obj_map_entryE8obj_hashINS4_8key_dataEE10default_eqIS7_EE6insertEOS7_(ptr noundef nonnull align 8 dereferenceable(20) %m_elevel, ptr noundef nonnull align 8 dereferenceable(16) %ref.tmp.i)
  call void @llvm.lifetime.end.p0(i64 16, ptr nonnull %ref.tmp.i)
  ret void
}